(dp0
Vengine
p1
Vpdflatex
p2
sVpackages
p3
c__builtin__
set
p4
((lp5
Vgeometry
p6
aVamsmath
p7
aVxcolor
p8
aVlistings
p9
atp10
Rp11
sVfiles_with_guttermarks
p12
g4
((lp13
V/Users/sivaram/Github/ESS/First_Review/My_Response/referee_comments_and_my_response.tex
p14
aV/Users/sivaram/Github/ESS/First_Review/My_Response/./referee_comments_and_my_response.tex
p15
aS'referee_comments_and_my_response.tex'
p16
atp17
Rp18
sVsynctex
p19
I01
s.