(dp0
Vengine
p1
Vpdflatex
p2
sVpackages
p3
c__builtin__
set
p4
((lp5
Vhyperref
p6
aVtikz
p7
aVxcolor
p8
aVurl
p9
aVmoreverb
p10
aVbookmark
p11
aVamsmath
p12
aVsubfigure
p13
aVpgfplots
p14
aVplaceins
p15
aVgraphicx
p16
aVnatbib
p17
aVamssymb
p18
atp19
Rp20
sVfiles_with_guttermarks
p21
g4
((lp22
V/usr/local/texlive/2014/texmf-dist/tex/latex/hyperref/hyperref.sty
p23
aS'nladoc.tex'
p24
aV/Users/sivaram/Github/ESS/First_Review/paper/nladoc.tex
p25
aV/Users/sivaram/Github/ESS/First_Review/paper/./nladoc.tex
p26
atp27
Rp28
sVsynctex
p29
I01
s.